
USART1.elf:     file format elf32-littlearm

Sections:
Idx Name          Size      VMA       LMA       File off  Algn
  0 .isr_vector   00000188  08000000  08000000  00001000  2**0
                  CONTENTS, ALLOC, LOAD, READONLY, DATA
  1 .text         000002dc  08000188  08000188  00001188  2**2
                  CONTENTS, ALLOC, LOAD, READONLY, CODE
  2 .rodata       00000010  08000464  08000464  00001464  2**2
                  CONTENTS, ALLOC, LOAD, READONLY, DATA
  3 .ARM.extab    00000000  08000474  08000474  0000147c  2**0
                  CONTENTS, READONLY
  4 .ARM          00000000  08000474  08000474  0000147c  2**0
                  CONTENTS, READONLY
  5 .preinit_array 00000000  08000474  0800047c  0000147c  2**0
                  CONTENTS, ALLOC, LOAD, DATA
  6 .init_array   00000004  08000474  08000474  00001474  2**2
                  CONTENTS, ALLOC, LOAD, READONLY, DATA
  7 .fini_array   00000004  08000478  08000478  00001478  2**2
                  CONTENTS, ALLOC, LOAD, READONLY, DATA
  8 .data         00000000  20000000  20000000  0000147c  2**0
                  CONTENTS, ALLOC, LOAD, DATA
  9 .ccmram       00000000  10000000  10000000  0000147c  2**0
                  CONTENTS
 10 .bss          00000020  20000000  20000000  00002000  2**2
                  ALLOC
 11 ._user_heap_stack 00000600  20000020  20000020  00002000  2**0
                  ALLOC
 12 .ARM.attributes 00000030  00000000  00000000  0000147c  2**0
                  CONTENTS, READONLY
 13 .debug_info   00000721  00000000  00000000  000014ac  2**0
                  CONTENTS, READONLY, DEBUGGING, OCTETS
 14 .debug_abbrev 000001b5  00000000  00000000  00001bcd  2**0
                  CONTENTS, READONLY, DEBUGGING, OCTETS
 15 .debug_aranges 00000070  00000000  00000000  00001d88  2**3
                  CONTENTS, READONLY, DEBUGGING, OCTETS
 16 .debug_rnglists 0000004b  00000000  00000000  00001df8  2**0
                  CONTENTS, READONLY, DEBUGGING, OCTETS
 17 .debug_macro  000151c4  00000000  00000000  00001e43  2**0
                  CONTENTS, READONLY, DEBUGGING, OCTETS
 18 .debug_line   000006f5  00000000  00000000  00017007  2**0
                  CONTENTS, READONLY, DEBUGGING, OCTETS
 19 .debug_str    00073b19  00000000  00000000  000176fc  2**0
                  CONTENTS, READONLY, DEBUGGING, OCTETS
 20 .comment      00000043  00000000  00000000  0008b215  2**0
                  CONTENTS, READONLY
 21 .debug_frame  000000fc  00000000  00000000  0008b258  2**2
                  CONTENTS, READONLY, DEBUGGING, OCTETS
 22 .debug_line_str 0000005b  00000000  00000000  0008b354  2**0
                  CONTENTS, READONLY, DEBUGGING, OCTETS

Disassembly of section .text:

08000188 <__do_global_dtors_aux>:
 8000188:	b510      	push	{r4, lr}
 800018a:	4c05      	ldr	r4, [pc, #20]	@ (80001a0 <__do_global_dtors_aux+0x18>)
 800018c:	7823      	ldrb	r3, [r4, #0]
 800018e:	b933      	cbnz	r3, 800019e <__do_global_dtors_aux+0x16>
 8000190:	4b04      	ldr	r3, [pc, #16]	@ (80001a4 <__do_global_dtors_aux+0x1c>)
 8000192:	b113      	cbz	r3, 800019a <__do_global_dtors_aux+0x12>
 8000194:	4804      	ldr	r0, [pc, #16]	@ (80001a8 <__do_global_dtors_aux+0x20>)
 8000196:	f3af 8000 	nop.w
 800019a:	2301      	movs	r3, #1
 800019c:	7023      	strb	r3, [r4, #0]
 800019e:	bd10      	pop	{r4, pc}
 80001a0:	20000000 	.word	0x20000000
 80001a4:	00000000 	.word	0x00000000
 80001a8:	0800044c 	.word	0x0800044c

080001ac <frame_dummy>:
 80001ac:	b508      	push	{r3, lr}
 80001ae:	4b03      	ldr	r3, [pc, #12]	@ (80001bc <frame_dummy+0x10>)
 80001b0:	b11b      	cbz	r3, 80001ba <frame_dummy+0xe>
 80001b2:	4903      	ldr	r1, [pc, #12]	@ (80001c0 <frame_dummy+0x14>)
 80001b4:	4803      	ldr	r0, [pc, #12]	@ (80001c4 <frame_dummy+0x18>)
 80001b6:	f3af 8000 	nop.w
 80001ba:	bd08      	pop	{r3, pc}
 80001bc:	00000000 	.word	0x00000000
 80001c0:	20000004 	.word	0x20000004
 80001c4:	0800044c 	.word	0x0800044c

080001c8 <main>:
void USART1_write(uint8_t ch);
uint8_t USART1_read(void);
void USART1_string(const char *str);

int main()
{
 80001c8:	b580      	push	{r7, lr}
 80001ca:	af00      	add	r7, sp, #0
	USART1_init();
 80001cc:	f000 f81a 	bl	8000204 <_Z11USART1_initv>

	while(true)
	{
		USART1_write('M');
 80001d0:	204d      	movs	r0, #77	@ 0x4d
 80001d2:	f000 f895 	bl	8000300 <_Z12USART1_writeh>
		 ch=USART1_read();
 80001d6:	f000 f8bd 	bl	8000354 <_Z11USART1_readv>
 80001da:	4603      	mov	r3, r0
 80001dc:	461a      	mov	r2, r3
 80001de:	4b07      	ldr	r3, [pc, #28]	@ (80001fc <main+0x34>)
 80001e0:	701a      	strb	r2, [r3, #0]

		USART1_write(ch);
 80001e2:	4b06      	ldr	r3, [pc, #24]	@ (80001fc <main+0x34>)
 80001e4:	781b      	ldrb	r3, [r3, #0]
 80001e6:	4618      	mov	r0, r3
 80001e8:	f000 f88a 	bl	8000300 <_Z12USART1_writeh>

		USART1_string("\nMANDA MANOHAR\n");
 80001ec:	4804      	ldr	r0, [pc, #16]	@ (8000200 <main+0x38>)
 80001ee:	f000 f8c9 	bl	8000384 <_Z13USART1_stringPKc>
		delay(200);
 80001f2:	20c8      	movs	r0, #200	@ 0xc8
 80001f4:	f000 f866 	bl	80002c4 <_Z5delayh>
		USART1_write('M');
 80001f8:	bf00      	nop
 80001fa:	e7e9      	b.n	80001d0 <main+0x8>
 80001fc:	2000001c 	.word	0x2000001c
 8000200:	08000464 	.word	0x08000464

08000204 <_Z11USART1_initv>:

}


void USART1_init()
{
 8000204:	b480      	push	{r7}
 8000206:	af00      	add	r7, sp, #0
	// enable clock

	RCC->APB2ENR |=(1U<<4);// enable usart1 //
 8000208:	4b2b      	ldr	r3, [pc, #172]	@ (80002b8 <_Z11USART1_initv+0xb4>)
 800020a:	6c5b      	ldr	r3, [r3, #68]	@ 0x44
 800020c:	4a2a      	ldr	r2, [pc, #168]	@ (80002b8 <_Z11USART1_initv+0xb4>)
 800020e:	f043 0310 	orr.w	r3, r3, #16
 8000212:	6453      	str	r3, [r2, #68]	@ 0x44
	RCC->AHB1ENR |=(1U<<1);// enable GPIOB
 8000214:	4b28      	ldr	r3, [pc, #160]	@ (80002b8 <_Z11USART1_initv+0xb4>)
 8000216:	6b1b      	ldr	r3, [r3, #48]	@ 0x30
 8000218:	4a27      	ldr	r2, [pc, #156]	@ (80002b8 <_Z11USART1_initv+0xb4>)
 800021a:	f043 0302 	orr.w	r3, r3, #2
 800021e:	6313      	str	r3, [r2, #48]	@ 0x30


	//tx and rx settings
	 GPIOB->MODER &=~(3U<<12);  //tx b6 so each bit two
 8000220:	4b26      	ldr	r3, [pc, #152]	@ (80002bc <_Z11USART1_initv+0xb8>)
 8000222:	681b      	ldr	r3, [r3, #0]
 8000224:	4a25      	ldr	r2, [pc, #148]	@ (80002bc <_Z11USART1_initv+0xb8>)
 8000226:	f423 5340 	bic.w	r3, r3, #12288	@ 0x3000
 800022a:	6013      	str	r3, [r2, #0]
	 GPIOB->MODER |= (1U<<13); // set altrantive functionality
 800022c:	4b23      	ldr	r3, [pc, #140]	@ (80002bc <_Z11USART1_initv+0xb8>)
 800022e:	681b      	ldr	r3, [r3, #0]
 8000230:	4a22      	ldr	r2, [pc, #136]	@ (80002bc <_Z11USART1_initv+0xb8>)
 8000232:	f443 5300 	orr.w	r3, r3, #8192	@ 0x2000
 8000236:	6013      	str	r3, [r2, #0]

	 GPIOB->AFR[0] &= ~(0xF<<(6*4)); // 6 & 7 so its low AFR each is four bits
 8000238:	4b20      	ldr	r3, [pc, #128]	@ (80002bc <_Z11USART1_initv+0xb8>)
 800023a:	6a1b      	ldr	r3, [r3, #32]
 800023c:	4a1f      	ldr	r2, [pc, #124]	@ (80002bc <_Z11USART1_initv+0xb8>)
 800023e:	f023 6370 	bic.w	r3, r3, #251658240	@ 0xf000000
 8000242:	6213      	str	r3, [r2, #32]
	 GPIOB->AFR[0]|= (0x7<<(6*4)); // afternative pin is AFR7 so set 0x7
 8000244:	4b1d      	ldr	r3, [pc, #116]	@ (80002bc <_Z11USART1_initv+0xb8>)
 8000246:	6a1b      	ldr	r3, [r3, #32]
 8000248:	4a1c      	ldr	r2, [pc, #112]	@ (80002bc <_Z11USART1_initv+0xb8>)
 800024a:	f043 63e0 	orr.w	r3, r3, #117440512	@ 0x7000000
 800024e:	6213      	str	r3, [r2, #32]

	 //Rx setting
	 GPIOB->MODER &=~(3U<<14);  //rx b7 so each bit two
 8000250:	4b1a      	ldr	r3, [pc, #104]	@ (80002bc <_Z11USART1_initv+0xb8>)
 8000252:	681b      	ldr	r3, [r3, #0]
 8000254:	4a19      	ldr	r2, [pc, #100]	@ (80002bc <_Z11USART1_initv+0xb8>)
 8000256:	f423 4340 	bic.w	r3, r3, #49152	@ 0xc000
 800025a:	6013      	str	r3, [r2, #0]
	 GPIOB->MODER |= (1U<<15); // set altrantive functionality
 800025c:	4b17      	ldr	r3, [pc, #92]	@ (80002bc <_Z11USART1_initv+0xb8>)
 800025e:	681b      	ldr	r3, [r3, #0]
 8000260:	4a16      	ldr	r2, [pc, #88]	@ (80002bc <_Z11USART1_initv+0xb8>)
 8000262:	f443 4300 	orr.w	r3, r3, #32768	@ 0x8000
 8000266:	6013      	str	r3, [r2, #0]

	 GPIOB->AFR[0] &= ~(0xF<<(7*4)); // 6 & 7 so its low AFR each is four bits
 8000268:	4b14      	ldr	r3, [pc, #80]	@ (80002bc <_Z11USART1_initv+0xb8>)
 800026a:	6a1b      	ldr	r3, [r3, #32]
 800026c:	4a13      	ldr	r2, [pc, #76]	@ (80002bc <_Z11USART1_initv+0xb8>)
 800026e:	f023 4370 	bic.w	r3, r3, #4026531840	@ 0xf0000000
 8000272:	6213      	str	r3, [r2, #32]
	 GPIOB->AFR[0] |= (0x7<<(7*4));//AFR pin set AFR so set 0x7
 8000274:	4b11      	ldr	r3, [pc, #68]	@ (80002bc <_Z11USART1_initv+0xb8>)
 8000276:	6a1b      	ldr	r3, [r3, #32]
 8000278:	4a10      	ldr	r2, [pc, #64]	@ (80002bc <_Z11USART1_initv+0xb8>)
 800027a:	f043 43e0 	orr.w	r3, r3, #1879048192	@ 0x70000000
 800027e:	6213      	str	r3, [r2, #32]

	  //usart1 settings

	  // tX & RX enable

	  USART1->BRR = 0x0683;// set the buatrate
 8000280:	4b0f      	ldr	r3, [pc, #60]	@ (80002c0 <_Z11USART1_initv+0xbc>)
 8000282:	f240 6283 	movw	r2, #1667	@ 0x683
 8000286:	609a      	str	r2, [r3, #8]
	  USART1->CR1 |=(1U<<2);
 8000288:	4b0d      	ldr	r3, [pc, #52]	@ (80002c0 <_Z11USART1_initv+0xbc>)
 800028a:	68db      	ldr	r3, [r3, #12]
 800028c:	4a0c      	ldr	r2, [pc, #48]	@ (80002c0 <_Z11USART1_initv+0xbc>)
 800028e:	f043 0304 	orr.w	r3, r3, #4
 8000292:	60d3      	str	r3, [r2, #12]
	  USART1->CR1 |=(1U<<3);
 8000294:	4b0a      	ldr	r3, [pc, #40]	@ (80002c0 <_Z11USART1_initv+0xbc>)
 8000296:	68db      	ldr	r3, [r3, #12]
 8000298:	4a09      	ldr	r2, [pc, #36]	@ (80002c0 <_Z11USART1_initv+0xbc>)
 800029a:	f043 0308 	orr.w	r3, r3, #8
 800029e:	60d3      	str	r3, [r2, #12]
	  USART1->CR1 |=(1U<<13); //UE enable
 80002a0:	4b07      	ldr	r3, [pc, #28]	@ (80002c0 <_Z11USART1_initv+0xbc>)
 80002a2:	68db      	ldr	r3, [r3, #12]
 80002a4:	4a06      	ldr	r2, [pc, #24]	@ (80002c0 <_Z11USART1_initv+0xbc>)
 80002a6:	f443 5300 	orr.w	r3, r3, #8192	@ 0x2000
 80002aa:	60d3      	str	r3, [r2, #12]

}
 80002ac:	bf00      	nop
 80002ae:	46bd      	mov	sp, r7
 80002b0:	f85d 7b04 	ldr.w	r7, [sp], #4
 80002b4:	4770      	bx	lr
 80002b6:	bf00      	nop
 80002b8:	40023800 	.word	0x40023800
 80002bc:	40020400 	.word	0x40020400
 80002c0:	40011000 	.word	0x40011000

080002c4 <_Z5delayh>:

void delay(uint8_t ms)
{
 80002c4:	b480      	push	{r7}
 80002c6:	b085      	sub	sp, #20
 80002c8:	af00      	add	r7, sp, #0
 80002ca:	4603      	mov	r3, r0
 80002cc:	71fb      	strb	r3, [r7, #7]

	for( ;ms>0;ms--)
 80002ce:	e00c      	b.n	80002ea <_Z5delayh+0x26>
		for(uint32_t i=0;i<2000;i++);
 80002d0:	2300      	movs	r3, #0
 80002d2:	60fb      	str	r3, [r7, #12]
 80002d4:	e002      	b.n	80002dc <_Z5delayh+0x18>
 80002d6:	68fb      	ldr	r3, [r7, #12]
 80002d8:	3301      	adds	r3, #1
 80002da:	60fb      	str	r3, [r7, #12]
 80002dc:	68fb      	ldr	r3, [r7, #12]
 80002de:	f5b3 6ffa 	cmp.w	r3, #2000	@ 0x7d0
 80002e2:	d3f8      	bcc.n	80002d6 <_Z5delayh+0x12>
	for( ;ms>0;ms--)
 80002e4:	79fb      	ldrb	r3, [r7, #7]
 80002e6:	3b01      	subs	r3, #1
 80002e8:	71fb      	strb	r3, [r7, #7]
 80002ea:	79fb      	ldrb	r3, [r7, #7]
 80002ec:	2b00      	cmp	r3, #0
 80002ee:	d1ef      	bne.n	80002d0 <_Z5delayh+0xc>
}
 80002f0:	bf00      	nop
 80002f2:	bf00      	nop
 80002f4:	3714      	adds	r7, #20
 80002f6:	46bd      	mov	sp, r7
 80002f8:	f85d 7b04 	ldr.w	r7, [sp], #4
 80002fc:	4770      	bx	lr
	...

08000300 <_Z12USART1_writeh>:

void USART1_write(uint8_t ch)
{
 8000300:	b480      	push	{r7}
 8000302:	b083      	sub	sp, #12
 8000304:	af00      	add	r7, sp, #0
 8000306:	4603      	mov	r3, r0
 8000308:	71fb      	strb	r3, [r7, #7]

	while(!(USART1->SR & (1U<<7))); // chk TXE is tx register empty or not
 800030a:	bf00      	nop
 800030c:	4b10      	ldr	r3, [pc, #64]	@ (8000350 <_Z12USART1_writeh+0x50>)
 800030e:	681b      	ldr	r3, [r3, #0]
 8000310:	f003 0380 	and.w	r3, r3, #128	@ 0x80
 8000314:	2b00      	cmp	r3, #0
 8000316:	bf0c      	ite	eq
 8000318:	2301      	moveq	r3, #1
 800031a:	2300      	movne	r3, #0
 800031c:	b2db      	uxtb	r3, r3
 800031e:	2b00      	cmp	r3, #0
 8000320:	d1f4      	bne.n	800030c <_Z12USART1_writeh+0xc>

	USART1->DR =ch;
 8000322:	4a0b      	ldr	r2, [pc, #44]	@ (8000350 <_Z12USART1_writeh+0x50>)
 8000324:	79fb      	ldrb	r3, [r7, #7]
 8000326:	6053      	str	r3, [r2, #4]

	while(! (USART1->SR & (1U<<6))); // check tx is completed or not
 8000328:	bf00      	nop
 800032a:	4b09      	ldr	r3, [pc, #36]	@ (8000350 <_Z12USART1_writeh+0x50>)
 800032c:	681b      	ldr	r3, [r3, #0]
 800032e:	f003 0340 	and.w	r3, r3, #64	@ 0x40
 8000332:	2b00      	cmp	r3, #0
 8000334:	bf0c      	ite	eq
 8000336:	2301      	moveq	r3, #1
 8000338:	2300      	movne	r3, #0
 800033a:	b2db      	uxtb	r3, r3
 800033c:	2b00      	cmp	r3, #0
 800033e:	d1f4      	bne.n	800032a <_Z12USART1_writeh+0x2a>

}
 8000340:	bf00      	nop
 8000342:	bf00      	nop
 8000344:	370c      	adds	r7, #12
 8000346:	46bd      	mov	sp, r7
 8000348:	f85d 7b04 	ldr.w	r7, [sp], #4
 800034c:	4770      	bx	lr
 800034e:	bf00      	nop
 8000350:	40011000 	.word	0x40011000

08000354 <_Z11USART1_readv>:

uint8_t USART1_read()
{
 8000354:	b480      	push	{r7}
 8000356:	af00      	add	r7, sp, #0
	while(!(USART1->SR & (1U<<5)));
 8000358:	bf00      	nop
 800035a:	4b09      	ldr	r3, [pc, #36]	@ (8000380 <_Z11USART1_readv+0x2c>)
 800035c:	681b      	ldr	r3, [r3, #0]
 800035e:	f003 0320 	and.w	r3, r3, #32
 8000362:	2b00      	cmp	r3, #0
 8000364:	bf0c      	ite	eq
 8000366:	2301      	moveq	r3, #1
 8000368:	2300      	movne	r3, #0
 800036a:	b2db      	uxtb	r3, r3
 800036c:	2b00      	cmp	r3, #0
 800036e:	d1f4      	bne.n	800035a <_Z11USART1_readv+0x6>

	return USART1->DR;
 8000370:	4b03      	ldr	r3, [pc, #12]	@ (8000380 <_Z11USART1_readv+0x2c>)
 8000372:	685b      	ldr	r3, [r3, #4]
 8000374:	b2db      	uxtb	r3, r3
}
 8000376:	4618      	mov	r0, r3
 8000378:	46bd      	mov	sp, r7
 800037a:	f85d 7b04 	ldr.w	r7, [sp], #4
 800037e:	4770      	bx	lr
 8000380:	40011000 	.word	0x40011000

08000384 <_Z13USART1_stringPKc>:

void USART1_string(const char *str)
{
 8000384:	b580      	push	{r7, lr}
 8000386:	b082      	sub	sp, #8
 8000388:	af00      	add	r7, sp, #0
 800038a:	6078      	str	r0, [r7, #4]

	while(*str)
 800038c:	e007      	b.n	800039e <_Z13USART1_stringPKc+0x1a>
	{
		USART1_write(*str);
 800038e:	687b      	ldr	r3, [r7, #4]
 8000390:	781b      	ldrb	r3, [r3, #0]
 8000392:	4618      	mov	r0, r3
 8000394:	f7ff ffb4 	bl	8000300 <_Z12USART1_writeh>
		str++;
 8000398:	687b      	ldr	r3, [r7, #4]
 800039a:	3301      	adds	r3, #1
 800039c:	607b      	str	r3, [r7, #4]
	while(*str)
 800039e:	687b      	ldr	r3, [r7, #4]
 80003a0:	781b      	ldrb	r3, [r3, #0]
 80003a2:	2b00      	cmp	r3, #0
 80003a4:	d1f3      	bne.n	800038e <_Z13USART1_stringPKc+0xa>
	}

}
 80003a6:	bf00      	nop
 80003a8:	bf00      	nop
 80003aa:	3708      	adds	r7, #8
 80003ac:	46bd      	mov	sp, r7
 80003ae:	bd80      	pop	{r7, pc}

080003b0 <Reset_Handler>:

  .section .text.Reset_Handler
  .weak Reset_Handler
  .type Reset_Handler, %function
Reset_Handler:
  ldr   r0, =_estack
 80003b0:	480d      	ldr	r0, [pc, #52]	@ (80003e8 <LoopForever+0x2>)
  mov   sp, r0          /* set stack pointer */
 80003b2:	4685      	mov	sp, r0
/* Call the clock system initialization function.*/
  bl  SystemInit
 80003b4:	f3af 8000 	nop.w

/* Copy the data segment initializers from flash to SRAM */
  ldr r0, =_sdata
 80003b8:	480c      	ldr	r0, [pc, #48]	@ (80003ec <LoopForever+0x6>)
  ldr r1, =_edata
 80003ba:	490d      	ldr	r1, [pc, #52]	@ (80003f0 <LoopForever+0xa>)
  ldr r2, =_sidata
 80003bc:	4a0d      	ldr	r2, [pc, #52]	@ (80003f4 <LoopForever+0xe>)
  movs r3, #0
 80003be:	2300      	movs	r3, #0
  b LoopCopyDataInit
 80003c0:	e002      	b.n	80003c8 <LoopCopyDataInit>

080003c2 <CopyDataInit>:

CopyDataInit:
  ldr r4, [r2, r3]
 80003c2:	58d4      	ldr	r4, [r2, r3]
  str r4, [r0, r3]
 80003c4:	50c4      	str	r4, [r0, r3]
  adds r3, r3, #4
 80003c6:	3304      	adds	r3, #4

080003c8 <LoopCopyDataInit>:

LoopCopyDataInit:
  adds r4, r0, r3
 80003c8:	18c4      	adds	r4, r0, r3
  cmp r4, r1
 80003ca:	428c      	cmp	r4, r1
  bcc CopyDataInit
 80003cc:	d3f9      	bcc.n	80003c2 <CopyDataInit>

/* Zero fill the bss segment. */
  ldr r2, =_sbss
 80003ce:	4a0a      	ldr	r2, [pc, #40]	@ (80003f8 <LoopForever+0x12>)
  ldr r4, =_ebss
 80003d0:	4c0a      	ldr	r4, [pc, #40]	@ (80003fc <LoopForever+0x16>)
  movs r3, #0
 80003d2:	2300      	movs	r3, #0
  b LoopFillZerobss
 80003d4:	e001      	b.n	80003da <LoopFillZerobss>

080003d6 <FillZerobss>:

FillZerobss:
  str  r3, [r2]
 80003d6:	6013      	str	r3, [r2, #0]
  adds r2, r2, #4
 80003d8:	3204      	adds	r2, #4

080003da <LoopFillZerobss>:

LoopFillZerobss:
  cmp r2, r4
 80003da:	42a2      	cmp	r2, r4
  bcc FillZerobss
 80003dc:	d3fb      	bcc.n	80003d6 <FillZerobss>


/* Call static constructors */
  bl __libc_init_array
 80003de:	f000 f811 	bl	8000404 <__libc_init_array>
/* Call the application's entry point.*/

  bl main
 80003e2:	f7ff fef1 	bl	80001c8 <main>

080003e6 <LoopForever>:

LoopForever:
  b LoopForever
 80003e6:	e7fe      	b.n	80003e6 <LoopForever>
  ldr   r0, =_estack
 80003e8:	20020000 	.word	0x20020000
  ldr r0, =_sdata
 80003ec:	20000000 	.word	0x20000000
  ldr r1, =_edata
 80003f0:	20000000 	.word	0x20000000
  ldr r2, =_sidata
 80003f4:	0800047c 	.word	0x0800047c
  ldr r2, =_sbss
 80003f8:	20000000 	.word	0x20000000
  ldr r4, =_ebss
 80003fc:	20000020 	.word	0x20000020

08000400 <ADC_IRQHandler>:
 * @retval : None
*/
  .section .text.Default_Handler,"ax",%progbits
Default_Handler:
Infinite_Loop:
  b Infinite_Loop
 8000400:	e7fe      	b.n	8000400 <ADC_IRQHandler>
	...

08000404 <__libc_init_array>:
 8000404:	b570      	push	{r4, r5, r6, lr}
 8000406:	4b0d      	ldr	r3, [pc, #52]	@ (800043c <__libc_init_array+0x38>)
 8000408:	4d0d      	ldr	r5, [pc, #52]	@ (8000440 <__libc_init_array+0x3c>)
 800040a:	1b5b      	subs	r3, r3, r5
 800040c:	109c      	asrs	r4, r3, #2
 800040e:	2600      	movs	r6, #0
 8000410:	42a6      	cmp	r6, r4
 8000412:	d109      	bne.n	8000428 <__libc_init_array+0x24>
 8000414:	f000 f81a 	bl	800044c <_init>
 8000418:	4d0a      	ldr	r5, [pc, #40]	@ (8000444 <__libc_init_array+0x40>)
 800041a:	4b0b      	ldr	r3, [pc, #44]	@ (8000448 <__libc_init_array+0x44>)
 800041c:	1b5b      	subs	r3, r3, r5
 800041e:	109c      	asrs	r4, r3, #2
 8000420:	2600      	movs	r6, #0
 8000422:	42a6      	cmp	r6, r4
 8000424:	d105      	bne.n	8000432 <__libc_init_array+0x2e>
 8000426:	bd70      	pop	{r4, r5, r6, pc}
 8000428:	f855 3b04 	ldr.w	r3, [r5], #4
 800042c:	4798      	blx	r3
 800042e:	3601      	adds	r6, #1
 8000430:	e7ee      	b.n	8000410 <__libc_init_array+0xc>
 8000432:	f855 3b04 	ldr.w	r3, [r5], #4
 8000436:	4798      	blx	r3
 8000438:	3601      	adds	r6, #1
 800043a:	e7f2      	b.n	8000422 <__libc_init_array+0x1e>
 800043c:	08000474 	.word	0x08000474
 8000440:	08000474 	.word	0x08000474
 8000444:	08000474 	.word	0x08000474
 8000448:	08000478 	.word	0x08000478

0800044c <_init>:
 800044c:	b5f8      	push	{r3, r4, r5, r6, r7, lr}
 800044e:	bf00      	nop
 8000450:	bcf8      	pop	{r3, r4, r5, r6, r7}
 8000452:	bc08      	pop	{r3}
 8000454:	469e      	mov	lr, r3
 8000456:	4770      	bx	lr

08000458 <_fini>:
 8000458:	b5f8      	push	{r3, r4, r5, r6, r7, lr}
 800045a:	bf00      	nop
 800045c:	bcf8      	pop	{r3, r4, r5, r6, r7}
 800045e:	bc08      	pop	{r3}
 8000460:	469e      	mov	lr, r3
 8000462:	4770      	bx	lr
